; Function Attrs: mustprogress uwtable
define internal void @_ZNK19OpenColorIO_v2_4dev12_GLOBAL__N_114AllocationNoOp5cloneEv(ptr noalias nocapture writeonly sret(%"class.std::shared_ptr") align 8 %agg.result, ptr nocapture noundef nonnull readonly align 8 dereferenceable(56) %this) unnamed_addr #3 align 2 personality ptr @__gxx_personality_v0 {
_ZNSt10shared_ptrIN19OpenColorIO_v2_4dev12_GLOBAL__N_114AllocationNoOpEED2Ev.exit:
  %ref.tmp = alloca %"class.std::shared_ptr.13", align 16
  %m_allocationData = getelementptr inbounds i8, ptr %this, i64 24
  call fastcc void @_ZSt11make_sharedIN19OpenColorIO_v2_4dev12_GLOBAL__N_114AllocationNoOpEJRKNS0_14AllocationDataEEESt10shared_ptrINSt9enable_ifIXntsr8is_arrayIT_EE5valueES8_E4typeEEDpOT0_(ptr noalias nonnull align 8 %ref.tmp, ptr noundef nonnull align 8 dereferenceable(32) %m_allocationData)
  %0 = load <2 x ptr>, ptr %ref.tmp, align 16
  store <2 x ptr> %0, ptr %agg.result, align 8
  ret void
}